	.intel_syntax noprefix
	.file	"fd_reedsol_gfni_32"
	.section	.rodata,"a",@progbits
	.p2align	6, 0x0
.LCPI0_0:
	.quad	-9222947056148012992
	.quad	-9222947056148012992
	.quad	-9222947056148012992
	.quad	-9222947056148012992
	.quad	-9222947056148012992
	.quad	-9222947056148012992
	.quad	-9222947056148012992
	.quad	-9222947056148012992
.LCPI0_1:
	.quad	4647787120223064096
	.quad	4647787120223064096
	.quad	4647787120223064096
	.quad	4647787120223064096
	.quad	4647787120223064096
	.quad	4647787120223064096
	.quad	4647787120223064096
	.quad	4647787120223064096
.LCPI0_2:
	.quad	-4575161039731543968
	.quad	-4575161039731543968
	.quad	-4575161039731543968
	.quad	-4575161039731543968
	.quad	-4575161039731543968
	.quad	-4575161039731543968
	.quad	-4575161039731543968
	.quad	-4575161039731543968
.LCPI0_3:
	.quad	2324033749999978512
	.quad	2324033749999978512
	.quad	2324033749999978512
	.quad	2324033749999978512
	.quad	2324033749999978512
	.quad	2324033749999978512
	.quad	2324033749999978512
	.quad	2324033749999978512
.LCPI0_4:
	.quad	-6899194785419712432
	.quad	-6899194785419712432
	.quad	-6899194785419712432
	.quad	-6899194785419712432
	.quad	-6899194785419712432
	.quad	-6899194785419712432
	.quad	-6899194785419712432
	.quad	-6899194785419712432
.LCPI0_5:
	.quad	6971820314008000560
	.quad	6971820314008000560
	.quad	6971820314008000560
	.quad	6971820314008000560
	.quad	6971820314008000560
	.quad	6971820314008000560
	.quad	6971820314008000560
	.quad	6971820314008000560
.LCPI0_6:
	.quad	-2251409316628350864
	.quad	-2251409316628350864
	.quad	-2251409316628350864
	.quad	-2251409316628350864
	.quad	-2251409316628350864
	.quad	-2251409316628350864
	.quad	-2251409316628350864
	.quad	-2251409316628350864
.LCPI0_7:
	.quad	1162017422616741000
	.quad	1162017422616741000
	.quad	1162017422616741000
	.quad	1162017422616741000
	.quad	1162017422616741000
	.quad	1162017422616741000
	.quad	1162017422616741000
	.quad	1162017422616741000
.LCPI0_8:
	.quad	-8060930733042899768
	.quad	-8060930733042899768
	.quad	-8060930733042899768
	.quad	-8060930733042899768
	.quad	-8060930733042899768
	.quad	-8060930733042899768
	.quad	-8060930733042899768
	.quad	-8060930733042899768
.LCPI0_9:
	.quad	5809662703675561128
	.quad	5809662703675561128
	.quad	5809662703675561128
	.quad	5809662703675561128
	.quad	5809662703675561128
	.quad	5809662703675561128
	.quad	5809662703675561128
	.quad	5809662703675561128
.LCPI0_10:
	.quad	-3413284356767419160
	.quad	-3413284356767419160
	.quad	-3413284356767419160
	.quad	-3413284356767419160
	.quad	-3413284356767419160
	.quad	-3413284356767419160
	.quad	-3413284356767419160
	.quad	-3413284356767419160
.LCPI0_11:
	.quad	3486050894492355736
	.quad	3486050894492355736
	.quad	3486050894492355736
	.quad	3486050894492355736
	.quad	3486050894492355736
	.quad	3486050894492355736
	.quad	3486050894492355736
	.quad	3486050894492355736
.LCPI0_12:
	.quad	-5737178740438962984
	.quad	-5737178740438962984
	.quad	-5737178740438962984
	.quad	-5737178740438962984
	.quad	-5737178740438962984
	.quad	-5737178740438962984
	.quad	-5737178740438962984
	.quad	-5737178740438962984
.LCPI0_13:
	.quad	8133695623664655544
	.quad	8133695623664655544
	.quad	8133695623664655544
	.quad	8133695623664655544
	.quad	8133695623664655544
	.quad	8133695623664655544
	.quad	8133695623664655544
	.quad	8133695623664655544
.LCPI0_14:
	.quad	-1089532907460068104
	.quad	-1089532907460068104
	.quad	-1089532907460068104
	.quad	-1089532907460068104
	.quad	-1089532907460068104
	.quad	-1089532907460068104
	.quad	-1089532907460068104
	.quad	-1089532907460068104
.LCPI0_15:
	.quad	9005101823424454590
	.quad	9005101823424454590
	.quad	9005101823424454590
	.quad	9005101823424454590
	.quad	9005101823424454590
	.quad	9005101823424454590
	.quad	9005101823424454590
	.quad	9005101823424454590
.LCPI0_16:
	.quad	-4865770906427330594
	.quad	-4865770906427330594
	.quad	-4865770906427330594
	.quad	-4865770906427330594
	.quad	-4865770906427330594
	.quad	-4865770906427330594
	.quad	-4865770906427330594
	.quad	-4865770906427330594
.LCPI0_17:
	.quad	871514108682404614
	.quad	871514108682404614
	.quad	871514108682404614
	.quad	871514108682404614
	.quad	871514108682404614
	.quad	871514108682404614
	.quad	871514108682404614
	.quad	871514108682404614
.LCPI0_18:
	.quad	-3703649733532077210
	.quad	-3703649733532077210
	.quad	-3703649733532077210
	.quad	-3703649733532077210
	.quad	-3703649733532077210
	.quad	-3703649733532077210
	.quad	-3703649733532077210
	.quad	-3703649733532077210
.LCPI0_19:
	.quad	5591914637062427558
	.quad	5591914637062427558
	.quad	5591914637062427558
	.quad	5591914637062427558
	.quad	5591914637062427558
	.quad	5591914637062427558
	.quad	5591914637062427558
	.quad	5591914637062427558
.LCPI0_20:
	.quad	-7116836082916579506
	.quad	-7116836082916579506
	.quad	-7116836082916579506
	.quad	-7116836082916579506
	.quad	-7116836082916579506
	.quad	-7116836082916579506
	.quad	-7116836082916579506
	.quad	-7116836082916579506
.LCPI0_21:
	.quad	-6826569808751564592
	.quad	-6826569808751564592
	.quad	-6826569808751564592
	.quad	-6826569808751564592
	.quad	-6826569808751564592
	.quad	-6826569808751564592
	.quad	-6826569808751564592
	.quad	-6826569808751564592
.LCPI0_22:
	.quad	363405232765403394
	.quad	363405232765403394
	.quad	363405232765403394
	.quad	363405232765403394
	.quad	363405232765403394
	.quad	363405232765403394
	.quad	363405232765403394
	.quad	363405232765403394
.LCPI0_23:
	.quad	-8496707236898184507
	.quad	-8496707236898184507
	.quad	-8496707236898184507
	.quad	-8496707236898184507
	.quad	-8496707236898184507
	.quad	-8496707236898184507
	.quad	-8496707236898184507
	.quad	-8496707236898184507
.LCPI0_24:
	.quad	3122831981973703189
	.quad	3122831981973703189
	.quad	3122831981973703189
	.quad	3122831981973703189
	.quad	3122831981973703189
	.quad	3122831981973703189
	.quad	3122831981973703189
	.quad	3122831981973703189
.LCPI0_25:
	.quad	5229078970664342180
	.quad	5229078970664342180
	.quad	5229078970664342180
	.quad	5229078970664342180
	.quad	5229078970664342180
	.quad	5229078970664342180
	.quad	5229078970664342180
	.quad	5229078970664342180
.LCPI0_26:
	.quad	-7480205854267726260
	.quad	-7480205854267726260
	.quad	-7480205854267726260
	.quad	-7480205854267726260
	.quad	-7480205854267726260
	.quad	-7480205854267726260
	.quad	-7480205854267726260
	.quad	-7480205854267726260
.LCPI0_27:
	.quad	-3050484147455068694
	.quad	-3050484147455068694
	.quad	-3050484147455068694
	.quad	-3050484147455068694
	.quad	-3050484147455068694
	.quad	-3050484147455068694
	.quad	-3050484147455068694
	.quad	-3050484147455068694
.LCPI0_28:
	.quad	-3486081701497965593
	.quad	-3486081701497965593
	.quad	-3486081701497965593
	.quad	-3486081701497965593
	.quad	-3486081701497965593
	.quad	-3486081701497965593
	.quad	-3486081701497965593
	.quad	-3486081701497965593
.LCPI0_29:
	.quad	1089642891646681991
	.quad	1089642891646681991
	.quad	1089642891646681991
	.quad	1089642891646681991
	.quad	1089642891646681991
	.quad	1089642891646681991
	.quad	1089642891646681991
	.quad	1089642891646681991
.LCPI0_30:
	.quad	-4648204945108553889
	.quad	-4648204945108553889
	.quad	-4648204945108553889
	.quad	-4648204945108553889
	.quad	-4648204945108553889
	.quad	-4648204945108553889
	.quad	-4648204945108553889
	.quad	-4648204945108553889
.LCPI0_31:
	.quad	9223232933719908159
	.quad	9223232933719908159
	.quad	9223232933719908159
	.quad	9223232933719908159
	.quad	9223232933719908159
	.quad	9223232933719908159
	.quad	9223232933719908159
	.quad	9223232933719908159
.LCPI0_32:
	.quad	-5519584328174621607
	.quad	-5519584328174621607
	.quad	-5519584328174621607
	.quad	-5519584328174621607
	.quad	-5519584328174621607
	.quad	-5519584328174621607
	.quad	-5519584328174621607
	.quad	-5519584328174621607
.LCPI0_33:
	.quad	8351850786859162681
	.quad	8351850786859162681
	.quad	8351850786859162681
	.quad	8351850786859162681
	.quad	8351850786859162681
	.quad	8351850786859162681
	.quad	8351850786859162681
	.quad	8351850786859162681
.LCPI0_34:
	.quad	-4357568679920471839
	.quad	-4357568679920471839
	.quad	-4357568679920471839
	.quad	-4357568679920471839
	.quad	-4357568679920471839
	.quad	-4357568679920471839
	.quad	-4357568679920471839
	.quad	-4357568679920471839
.LCPI0_35:
	.quad	218157508787748993
	.quad	218157508787748993
	.quad	218157508787748993
	.quad	218157508787748993
	.quad	218157508787748993
	.quad	218157508787748993
	.quad	218157508787748993
	.quad	218157508787748993
.LCPI0_36:
	.quad	-8642222038310591804
	.quad	-8642222038310591804
	.quad	-8642222038310591804
	.quad	-8642222038310591804
	.quad	-8642222038310591804
	.quad	-8642222038310591804
	.quad	-8642222038310591804
	.quad	-8642222038310591804
.LCPI0_37:
	.quad	581292404492059268
	.quad	581292404492059268
	.quad	581292404492059268
	.quad	581292404492059268
	.quad	581292404492059268
	.quad	581292404492059268
	.quad	581292404492059268
	.quad	581292404492059268
.LCPI0_38:
	.quad	-3994436567354969372
	.quad	-3994436567354969372
	.quad	-3994436567354969372
	.quad	-3994436567354969372
	.quad	-3994436567354969372
	.quad	-3994436567354969372
	.quad	-3994436567354969372
	.quad	-3994436567354969372
.LCPI0_39:
	.quad	-6318540682869511468
	.quad	-6318540682869511468
	.quad	-6318540682869511468
	.quad	-6318540682869511468
	.quad	-6318540682869511468
	.quad	-6318540682869511468
	.quad	-6318540682869511468
	.quad	-6318540682869511468
.LCPI0_40:
	.quad	2905255230614882964
	.quad	2905255230614882964
	.quad	2905255230614882964
	.quad	2905255230614882964
	.quad	2905255230614882964
	.quad	2905255230614882964
	.quad	2905255230614882964
	.quad	2905255230614882964
.LCPI0_41:
	.quad	-1670754668617303308
	.quad	-1670754668617303308
	.quad	-1670754668617303308
	.quad	-1670754668617303308
	.quad	-1670754668617303308
	.quad	-1670754668617303308
	.quad	-1670754668617303308
	.quad	-1670754668617303308
.LCPI0_42:
	.quad	7553042348673686196
	.quad	7553042348673686196
	.quad	7553042348673686196
	.quad	7553042348673686196
	.quad	7553042348673686196
	.quad	7553042348673686196
	.quad	7553042348673686196
	.quad	7553042348673686196
.LCPI0_43:
	.quad	1743309688046552588
	.quad	1743309688046552588
	.quad	1743309688046552588
	.quad	1743309688046552588
	.quad	1743309688046552588
	.quad	1743309688046552588
	.quad	1743309688046552588
	.quad	1743309688046552588
.LCPI0_44:
	.quad	-2832560023453092244
	.quad	-2832560023453092244
	.quad	-2832560023453092244
	.quad	-2832560023453092244
	.quad	-2832560023453092244
	.quad	-2832560023453092244
	.quad	-2832560023453092244
	.quad	-2832560023453092244
.LCPI0_45:
	.quad	6390954415054591532
	.quad	6390954415054591532
	.quad	6390954415054591532
	.quad	6390954415054591532
	.quad	6390954415054591532
	.quad	6390954415054591532
	.quad	6390954415054591532
	.quad	6390954415054591532
.LCPI0_46:
	.quad	-5156524774786617764
	.quad	-5156524774786617764
	.quad	-5156524774786617764
	.quad	-5156524774786617764
	.quad	-5156524774786617764
	.quad	-5156524774786617764
	.quad	-5156524774786617764
	.quad	-5156524774786617764
.LCPI0_47:
	.quad	4067272238209404444
	.quad	4067272238209404444
	.quad	4067272238209404444
	.quad	4067272238209404444
	.quad	4067272238209404444
	.quad	4067272238209404444
	.quad	4067272238209404444
	.quad	4067272238209404444
.LCPI0_48:
	.quad	-508878396346876292
	.quad	-508878396346876292
	.quad	-508878396346876292
	.quad	-508878396346876292
	.quad	-508878396346876292
	.quad	-508878396346876292
	.quad	-508878396346876292
	.quad	-508878396346876292
.LCPI0_49:
	.quad	8714917521432485436
	.quad	8714917521432485436
	.quad	8714917521432485436
	.quad	8714917521432485436
	.quad	8714917521432485436
	.quad	8714917521432485436
	.quad	8714917521432485436
	.quad	8714917521432485436
	.text
	.globl	fd_reedsol_private_encode_32_32
	.p2align	4
	.type	fd_reedsol_private_encode_32_32,@function
fd_reedsol_private_encode_32_32:
	.cfi_startproc
	test	rdi, rdi
	je	.LBB0_5
	push	rbp
	.cfi_def_cfa_offset 16
	.cfi_offset rbp, -16
	mov	rbp, rsp
	.cfi_def_cfa_register rbp
	and	rsp, -64
	sub	rsp, 1920
	lea	rax, [rdi - 64]
	xor	ecx, ecx
	.p2align	4
.LBB0_2:
	mov	r8, qword ptr [rsi]
	vmovups	zmm1, zmmword ptr [r8 + rcx]
	vmovaps	zmmword ptr [rsp + 320], zmm1
	mov	r8, qword ptr [rsi + 16]
	vmovups	zmm2, zmmword ptr [r8 + rcx]
	vmovaps	zmmword ptr [rsp + 192], zmm2
	mov	r8, qword ptr [rsi + 32]
	vmovdqu64	zmm0, zmmword ptr [r8 + rcx]
	mov	r8, qword ptr [rsi + 48]
	vmovdqu64	zmm21, zmmword ptr [r8 + rcx]
	mov	r8, qword ptr [rsi + 64]
	vmovdqu64	zmm15, zmmword ptr [r8 + rcx]
	mov	r8, qword ptr [rsi + 80]
	vmovdqu64	zmm17, zmmword ptr [r8 + rcx]
	mov	r8, qword ptr [rsi + 96]
	vmovdqu64	zmm16, zmmword ptr [r8 + rcx]
	mov	r8, qword ptr [rsi + 112]
	vmovdqu64	zmm24, zmmword ptr [r8 + rcx]
	mov	r8, qword ptr [rsi + 128]
	vmovdqu64	zmm23, zmmword ptr [r8 + rcx]
	mov	r8, qword ptr [rsi + 144]
	vmovdqu64	zmm22, zmmword ptr [r8 + rcx]
	mov	r8, qword ptr [rsi + 160]
	vmovdqu64	zmm26, zmmword ptr [r8 + rcx]
	mov	r8, qword ptr [rsi + 176]
	vmovdqu64	zmm25, zmmword ptr [r8 + rcx]
	mov	r8, qword ptr [rsi + 192]
	vmovdqu64	zmm28, zmmword ptr [r8 + rcx]
	mov	r8, qword ptr [rsi + 208]
	vmovdqu64	zmm19, zmmword ptr [r8 + rcx]
	mov	r8, qword ptr [rsi + 224]
	vmovdqu64	zmm29, zmmword ptr [r8 + rcx]
	mov	r8, qword ptr [rsi + 240]
	vmovdqu64	zmm20, zmmword ptr [r8 + rcx]
	mov	r8, qword ptr [rsi + 8]
	vxorps	zmm1, zmm1, zmmword ptr [r8 + rcx]
	vmovaps	zmmword ptr [rsp + 1152], zmm1
	mov	r8, qword ptr [rsi + 24]
	vxorps	zmm13, zmm2, zmmword ptr [r8 + rcx]
	vmovaps	zmmword ptr [rsp + 1216], zmm13
	mov	r8, qword ptr [rsi + 40]
	vpxorq	zmm12, zmm0, zmmword ptr [r8 + rcx]
	vmovdqa64	zmmword ptr [rsp + 384], zmm12
	mov	r8, qword ptr [rsi + 56]
	vpxorq	zmm30, zmm21, zmmword ptr [r8 + rcx]
	vmovdqa64	zmmword ptr [rsp + 256], zmm30
	mov	r8, qword ptr [rsi + 72]
	vpxorq	zmm10, zmm15, zmmword ptr [r8 + rcx]
	vmovdqa64	zmmword ptr [rsp + 512], zmm10
	mov	r8, qword ptr [rsi + 88]
	vpxorq	zmm9, zmm17, zmmword ptr [r8 + rcx]
	vmovdqa64	zmmword ptr [rsp + 64], zmm9
	mov	r8, qword ptr [rsi + 104]
	vpxorq	zmm27, zmm16, zmmword ptr [r8 + rcx]
	vmovdqa64	zmmword ptr [rsp + 1024], zmm27
	mov	r8, qword ptr [rsi + 120]
	vpxorq	zmm8, zmm24, zmmword ptr [r8 + rcx]
	vmovdqa64	zmmword ptr [rsp + 832], zmm8
	mov	r8, qword ptr [rsi + 136]
	vpxorq	zmm5, zmm23, zmmword ptr [r8 + rcx]
	mov	r8, qword ptr [rsi + 152]
	vpxorq	zmm6, zmm22, zmmword ptr [r8 + rcx]
	vmovdqa64	zmmword ptr [rsp + 704], zmm6
	mov	r8, qword ptr [rsi + 168]
	vpxorq	zmm4, zmm26, zmmword ptr [r8 + rcx]
	vmovdqa64	zmmword ptr [rsp + 960], zmm4
	mov	r8, qword ptr [rsi + 184]
	vpxorq	zmm3, zmm25, zmmword ptr [r8 + rcx]
	vmovdqa64	zmmword ptr [rsp + 768], zmm3
	mov	r8, qword ptr [rsi + 200]
	vpxorq	zmm2, zmm28, zmmword ptr [r8 + rcx]
	vmovdqa64	zmmword ptr [rsp + 640], zmm2
	mov	r8, qword ptr [rsi + 216]
	vpxorq	zmm7, zmm19, zmmword ptr [r8 + rcx]
	vmovdqa64	zmmword ptr [rsp], zmm7
	mov	r8, qword ptr [rsi + 232]
	vpxorq	zmm1, zmm29, zmmword ptr [r8 + rcx]
	vmovdqa64	zmmword ptr [rsp + 1088], zmm1
	mov	r8, qword ptr [rsi + 248]
	vpxorq	zmm11, zmm20, zmmword ptr [r8 + rcx]
	vmovdqa64	zmmword ptr [rsp + 896], zmm11
	#APP
	vgf2p8affineqb	zmm31, zmm13, zmmword ptr [rip + .LCPI0_0], 0
	#NO_APP
	#APP
	vgf2p8affineqb	zmm14, zmm12, zmmword ptr [rip + .LCPI0_1], 0
	#NO_APP
	vpxorq	zmm18, zmm14, zmm0
	#APP
	vgf2p8affineqb	zmm12, zmm30, zmmword ptr [rip + .LCPI0_2], 0
	#NO_APP
	#APP
	vgf2p8affineqb	zmm0, zmm10, zmmword ptr [rip + .LCPI0_3], 0
	#NO_APP
	vpxorq	zmm15, zmm0, zmm15
	#APP
	vgf2p8affineqb	zmm30, zmm9, zmmword ptr [rip + .LCPI0_4], 0
	#NO_APP
	#APP
	vgf2p8affineqb	zmm0, zmm27, zmmword ptr [rip + .LCPI0_5], 0
	#NO_APP
	vpxorq	zmm13, zmm0, zmm16
	#APP
	vgf2p8affineqb	zmm27, zmm8, zmmword ptr [rip + .LCPI0_6], 0
	#NO_APP
	#APP
	vgf2p8affineqb	zmm0, zmm5, zmmword ptr [rip + .LCPI0_7], 0
	#NO_APP
	vmovdqa64	zmm8, zmm5
	vpxorq	zmm5, zmm0, zmm23
	#APP
	vgf2p8affineqb	zmm23, zmm6, zmmword ptr [rip + .LCPI0_8], 0
	#NO_APP
	#APP
	vgf2p8affineqb	zmm0, zmm4, zmmword ptr [rip + .LCPI0_9], 0
	#NO_APP
	vpxorq	zmm26, zmm0, zmm26
	#APP
	vgf2p8affineqb	zmm6, zmm3, zmmword ptr [rip + .LCPI0_10], 0
	#NO_APP
	#APP
	vgf2p8affineqb	zmm0, zmm2, zmmword ptr [rip + .LCPI0_11], 0
	#NO_APP
	vpxorq	zmm28, zmm0, zmm28
	#APP
	vgf2p8affineqb	zmm0, zmm7, zmmword ptr [rip + .LCPI0_12], 0
	#NO_APP
	#APP
	vgf2p8affineqb	zmm14, zmm1, zmmword ptr [rip + .LCPI0_13], 0
	#NO_APP
	vpxorq	zmm14, zmm14, zmm29
	vmovdqa64	zmm2, zmmword ptr [rsp + 320]
	vpternlogq	zmm31, zmm2, zmmword ptr [rsp + 192], 150
	vpternlogq	zmm12, zmm18, zmm21, 150
	vmovdqa64	zmmword ptr [rsp + 192], zmm12
	vpternlogq	zmm30, zmm15, zmm17, 150
	#APP
	vgf2p8affineqb	zmm7, zmm11, zmmword ptr [rip + .LCPI0_14], 0
	#NO_APP
	#APP
	vgf2p8affineqb	zmm29, zmm12, zmmword ptr [rip + .LCPI0_2], 0
	#NO_APP
	#APP
	vgf2p8affineqb	zmm10, zmm30, zmmword ptr [rip + .LCPI0_13], 0
	#NO_APP
	vpxorq	zmm10, zmm10, zmm15
	vpternlogq	zmm27, zmm13, zmm24, 150
	vpternlogq	zmm23, zmm5, zmm22, 150
	#APP
	vgf2p8affineqb	zmm16, zmm27, zmmword ptr [rip + .LCPI0_12], 0
	#NO_APP
	#APP
	vgf2p8affineqb	zmm9, zmm23, zmmword ptr [rip + .LCPI0_15], 0
	#NO_APP
	vpxorq	zmm1, zmm9, zmm5
	vpternlogq	zmm6, zmm26, zmm25, 150
	vpternlogq	zmm0, zmm28, zmm19, 150
	#APP
	vgf2p8affineqb	zmm9, zmm6, zmmword ptr [rip + .LCPI0_16], 0
	#NO_APP
	#APP
	vgf2p8affineqb	zmm11, zmm0, zmmword ptr [rip + .LCPI0_17], 0
	#NO_APP
	vpxorq	zmm11, zmm11, zmm28
	vpternlogq	zmm7, zmm14, zmm20, 150
	vmovdqa64	zmm17, zmm2
	vpternlogq	zmm29, zmm2, zmm18, 150
	vpternlogq	zmm16, zmm10, zmm13, 150
	vpternlogq	zmm9, zmm1, zmm26, 150
	#APP
	vgf2p8affineqb	zmm4, zmm7, zmmword ptr [rip + .LCPI0_18], 0
	#NO_APP
	#APP
	vgf2p8affineqb	zmm26, zmm16, zmmword ptr [rip + .LCPI0_10], 0
	#NO_APP
	#APP
	vgf2p8affineqb	zmm2, zmm9, zmmword ptr [rip + .LCPI0_19], 0
	#NO_APP
	vpxorq	zmm1, zmm2, zmm1
	vpternlogq	zmm4, zmm11, zmm14, 150
	vpternlogq	zmm26, zmm17, zmm10, 150
	#APP
	vgf2p8affineqb	zmm22, zmm4, zmmword ptr [rip + .LCPI0_20], 0
	#NO_APP
	vpternlogq	zmm22, zmm1, zmm11, 150
	#APP
	vgf2p8affineqb	zmm2, zmm22, zmmword ptr [rip + .LCPI0_21], 0
	#NO_APP
	vpxorq	zmm2, zmm2, zmm1
	vpxorq	zmm28, zmm4, zmm9
	vpxorq	zmm1, zmm27, zmm30
	vmovdqa64	zmmword ptr [rsp + 128], zmm1
	vpxorq	zmm20, zmm6, zmm23
	#APP
	vgf2p8affineqb	zmm6, zmm28, zmmword ptr [rip + .LCPI0_21], 0
	#NO_APP
	#APP
	vgf2p8affineqb	zmm27, zmm1, zmmword ptr [rip + .LCPI0_10], 0
	#NO_APP
	#APP
	vgf2p8affineqb	zmm1, zmm20, zmmword ptr [rip + .LCPI0_19], 0
	#NO_APP
	vpxorq	zmm15, zmm1, zmm23
	vpxorq	zmm4, zmm7, zmm0
	#APP
	vgf2p8affineqb	zmm3, zmm4, zmmword ptr [rip + .LCPI0_20], 0
	#NO_APP
	vpternlogq	zmm3, zmm15, zmm0, 150
	vpxorq	zmm23, zmm4, zmm20
	vmovaps	zmm0, zmmword ptr [rsp + 256]
	vxorps	zmm0, zmm0, zmmword ptr [rsp + 384]
	vmovaps	zmmword ptr [rsp + 256], zmm0
	vmovdqa64	zmm5, zmmword ptr [rsp + 512]
	vpxorq	zmm12, zmm5, zmmword ptr [rsp + 64]
	#APP
	vgf2p8affineqb	zmm4, zmm3, zmmword ptr [rip + .LCPI0_21], 0
	#NO_APP
	vmovaps	zmmword ptr [rsp + 576], zmm4
	#APP
	vgf2p8affineqb	zmm4, zmm23, zmmword ptr [rip + .LCPI0_21], 0
	#NO_APP
	vmovaps	zmmword ptr [rsp + 64], zmm4
	#APP
	vgf2p8affineqb	zmm0, zmm0, zmmword ptr [rip + .LCPI0_2], 0
	#NO_APP
	vmovaps	zmmword ptr [rsp + 448], zmm0
	#APP
	vgf2p8affineqb	zmm0, zmm12, zmmword ptr [rip + .LCPI0_13], 0
	#NO_APP
	vmovdqa64	zmmword ptr [rsp + 1792], zmm12
	vpxorq	zmm19, zmm0, zmm5
	vmovdqa64	zmm5, zmmword ptr [rsp + 1024]
	vpxorq	zmm4, zmm5, zmmword ptr [rsp + 832]
	vpxorq	zmm14, zmm8, zmmword ptr [rsp + 704]
	#APP
	vgf2p8affineqb	zmm10, zmm4, zmmword ptr [rip + .LCPI0_12], 0
	#NO_APP
	#APP
	vgf2p8affineqb	zmm0, zmm14, zmmword ptr [rip + .LCPI0_15], 0
	#NO_APP
	vpxorq	zmm0, zmm0, zmm8
	vmovdqa64	zmm11, zmmword ptr [rsp + 960]
	vpxorq	zmm17, zmm11, zmmword ptr [rsp + 768]
	vmovdqa64	zmm13, zmmword ptr [rsp + 640]
	vpxorq	zmm1, zmm13, zmmword ptr [rsp]
	#APP
	vgf2p8affineqb	zmm7, zmm17, zmmword ptr [rip + .LCPI0_16], 0
	#NO_APP
	#APP
	vgf2p8affineqb	zmm8, zmm1, zmmword ptr [rip + .LCPI0_17], 0
	#NO_APP
	vpxorq	zmm8, zmm8, zmm13
	vpternlogq	zmm10, zmm19, zmm5, 150
	vmovdqa64	zmmword ptr [rsp + 640], zmm10
	vpternlogq	zmm7, zmm0, zmm11, 150
	vmovdqa64	zmm5, zmmword ptr [rsp + 1088]
	vpxorq	zmm24, zmm5, zmmword ptr [rsp + 896]
	#APP
	vgf2p8affineqb	zmm13, zmm24, zmmword ptr [rip + .LCPI0_18], 0
	#NO_APP
	#APP
	vgf2p8affineqb	zmm21, zmm10, zmmword ptr [rip + .LCPI0_10], 0
	#NO_APP
	#APP
	vgf2p8affineqb	zmm11, zmm7, zmmword ptr [rip + .LCPI0_19], 0
	#NO_APP
	vpxorq	zmm0, zmm11, zmm0
	vpternlogq	zmm13, zmm8, zmm5, 150
	#APP
	vgf2p8affineqb	zmm10, zmm13, zmmword ptr [rip + .LCPI0_20], 0
	#NO_APP
	vpternlogq	zmm10, zmm0, zmm8, 150
	vpxorq	zmm8, zmm13, zmm7
	vpxorq	zmm4, zmm4, zmm12
	vmovdqa64	zmmword ptr [rsp + 1088], zmm4
	vpxorq	zmm11, zmm17, zmm14
	#APP
	vgf2p8affineqb	zmm12, zmm10, zmmword ptr [rip + .LCPI0_21], 0
	#NO_APP
	#APP
	vgf2p8affineqb	zmm5, zmm8, zmmword ptr [rip + .LCPI0_21], 0
	#NO_APP
	vmovaps	zmmword ptr [rsp], zmm5
	#APP
	vgf2p8affineqb	zmm17, zmm4, zmmword ptr [rip + .LCPI0_10], 0
	#NO_APP
	#APP
	vgf2p8affineqb	zmm4, zmm11, zmmword ptr [rip + .LCPI0_19], 0
	#NO_APP
	vmovdqa64	zmmword ptr [rsp + 768], zmm11
	vpxorq	zmm5, zmm4, zmm14
	vmovdqa64	zmmword ptr [rsp + 1472], zmm5
	vpxorq	zmm4, zmm24, zmm1
	#APP
	vgf2p8affineqb	zmm25, zmm4, zmmword ptr [rip + .LCPI0_20], 0
	#NO_APP
	vpternlogq	zmm25, zmm5, zmm1, 150
	vpxorq	zmm4, zmm4, zmm11
	vmovdqa64	zmmword ptr [rsp + 896], zmm4
	vmovdqa64	zmm5, zmmword ptr [rsp + 320]
	vpxorq	zmm1, zmm2, zmm5
	#APP
	vgf2p8affineqb	zmm11, zmm25, zmmword ptr [rip + .LCPI0_21], 0
	#NO_APP
	vmovaps	zmmword ptr [rsp + 1536], zmm11
	#APP
	vgf2p8affineqb	zmm4, zmm4, zmmword ptr [rip + .LCPI0_21], 0
	#NO_APP
	vmovaps	zmmword ptr [rsp + 704], zmm4
	#APP
	vgf2p8affineqb	zmm1, zmm1, zmmword ptr [rip + .LCPI0_22], 0
	#NO_APP
	vpxorq	zmm4, zmm22, zmm26
	#APP
	vgf2p8affineqb	zmm4, zmm4, zmmword ptr [rip + .LCPI0_22], 0
	#NO_APP
	vpxorq	zmm11, zmm4, zmm26
	vmovdqa64	zmmword ptr [rsp + 1024], zmm11
	vpxorq	zmm4, zmm4, zmm22
	vmovdqa64	zmmword ptr [rsp + 960], zmm4
	#APP
	vgf2p8affineqb	zmm11, zmm11, zmmword ptr [rip + .LCPI0_23], 0
	#NO_APP
	vpternlogq	zmm11, zmm1, zmm5, 150
	vmovdqa64	zmmword ptr [rsp + 832], zmm11
	#APP
	vgf2p8affineqb	zmm24, zmm4, zmmword ptr [rip + .LCPI0_24], 0
	#NO_APP
	vpternlogq	zmm24, zmm2, zmm1, 150
	vpxorq	zmm1, zmm6, zmm9
	vpxorq	zmm2, zmm16, zmm29
	vpxorq	zmm4, zmm1, zmm29
	#APP
	vgf2p8affineqb	zmm4, zmm4, zmmword ptr [rip + .LCPI0_22], 0
	#NO_APP
	vpxorq	zmm6, zmm28, zmm2
	#APP
	vgf2p8affineqb	zmm6, zmm6, zmmword ptr [rip + .LCPI0_22], 0
	#NO_APP
	vpxorq	zmm2, zmm6, zmm2
	vpxorq	zmm6, zmm6, zmm28
	#APP
	vgf2p8affineqb	zmm28, zmm2, zmmword ptr [rip + .LCPI0_23], 0
	#NO_APP
	vpternlogq	zmm28, zmm4, zmm29, 150
	#APP
	vgf2p8affineqb	zmm29, zmm6, zmmword ptr [rip + .LCPI0_24], 0
	#NO_APP
	vpternlogq	zmm29, zmm1, zmm4, 150
	vpternlogq	zmm27, zmm31, zmm30, 150
	vpxorq	zmm1, zmm15, zmmword ptr [rsp + 576]
	vpxorq	zmm9, zmm28, zmm2
	vmovdqa64	zmmword ptr [rsp + 512], zmm9
	vpxorq	zmm4, zmm29, zmm6
	vmovdqa64	zmmword ptr [rsp + 1728], zmm4
	vpxorq	zmm2, zmm1, zmm31
	#APP
	vgf2p8affineqb	zmm6, zmm28, zmmword ptr [rip + .LCPI0_25], 0
	#NO_APP
	vmovaps	zmmword ptr [rsp + 1664], zmm6
	#APP
	vgf2p8affineqb	zmm22, zmm9, zmmword ptr [rip + .LCPI0_26], 0
	#NO_APP
	#APP
	vgf2p8affineqb	zmm6, zmm29, zmmword ptr [rip + .LCPI0_22], 0
	#NO_APP
	vmovaps	zmmword ptr [rsp + 1600], zmm6
	#APP
	vgf2p8affineqb	zmm16, zmm4, zmmword ptr [rip + .LCPI0_27], 0
	#NO_APP
	#APP
	vgf2p8affineqb	zmm2, zmm2, zmmword ptr [rip + .LCPI0_22], 0
	#NO_APP
	vpxorq	zmm9, zmm3, zmm27
	#APP
	vgf2p8affineqb	zmm9, zmm9, zmmword ptr [rip + .LCPI0_22], 0
	#NO_APP
	vpxorq	zmm14, zmm9, zmm27
	vpxorq	zmm3, zmm9, zmm3
	#APP
	vgf2p8affineqb	zmm9, zmm14, zmmword ptr [rip + .LCPI0_23], 0
	#NO_APP
	#APP
	vgf2p8affineqb	zmm15, zmm3, zmmword ptr [rip + .LCPI0_24], 0
	#NO_APP
	vpternlogq	zmm15, zmm1, zmm2, 150
	vpternlogq	zmm9, zmm2, zmm31, 150
	vpxorq	zmm1, zmm31, zmmword ptr [rsp + 192]
	vpxorq	zmm2, zmm20, zmmword ptr [rsp + 64]
	vpxorq	zmm5, zmm1, zmmword ptr [rsp + 128]
	vpxorq	zmm18, zmm2, zmm1
	#APP
	vgf2p8affineqb	zmm18, zmm18, zmmword ptr [rip + .LCPI0_22], 0
	#NO_APP
	vpxorq	zmm20, zmm23, zmm5
	#APP
	vgf2p8affineqb	zmm20, zmm20, zmmword ptr [rip + .LCPI0_22], 0
	#NO_APP
	vpxorq	zmm5, zmm20, zmm5
	vpxorq	zmm23, zmm20, zmm23
	#APP
	vgf2p8affineqb	zmm26, zmm5, zmmword ptr [rip + .LCPI0_23], 0
	#NO_APP
	vpternlogq	zmm26, zmm18, zmm1, 150
	#APP
	vgf2p8affineqb	zmm1, zmm23, zmmword ptr [rip + .LCPI0_24], 0
	#NO_APP
	vpternlogq	zmm1, zmm2, zmm18, 150
	vmovdqa64	zmm18, zmmword ptr [rsp + 1152]
	vmovdqa64	zmm4, zmmword ptr [rsp + 448]
	vpternlogq	zmm4, zmm18, zmmword ptr [rsp + 384], 150
	vpternlogq	zmm21, zmm18, zmm19, 150
	vpxorq	zmm13, zmm12, zmm0
	vpxorq	zmm19, zmm7, zmmword ptr [rsp]
	vpxorq	zmm5, zmm26, zmm5
	#APP
	vgf2p8affineqb	zmm7, zmm26, zmmword ptr [rip + .LCPI0_25], 0
	#NO_APP
	#APP
	vgf2p8affineqb	zmm20, zmm5, zmmword ptr [rip + .LCPI0_26], 0
	#NO_APP
	vpternlogq	zmm20, zmm14, zmm9, 150
	vpxorq	zmm7, zmm7, zmm9
	vmovdqa64	zmmword ptr [rsp + 576], zmm7
	vpxorq	zmm9, zmm1, zmm23
	#APP
	vgf2p8affineqb	zmm12, zmm1, zmmword ptr [rip + .LCPI0_22], 0
	#NO_APP
	#APP
	vgf2p8affineqb	zmm2, zmm9, zmmword ptr [rip + .LCPI0_27], 0
	#NO_APP
	vpternlogq	zmm2, zmm3, zmm15, 150
	vpxorq	zmm0, zmm12, zmm15
	vpxorq	zmm11, zmm7, zmm26
	vmovdqa64	zmmword ptr [rsp], zmm11
	vpxorq	zmm6, zmm20, zmm5
	vmovdqa64	zmmword ptr [rsp + 64], zmm6
	vpxorq	zmm3, zmm0, zmm1
	vmovdqa64	zmm5, zmm0
	vmovdqa64	zmmword ptr [rsp + 128], zmm0
	vmovdqa64	zmmword ptr [rsp + 192], zmm3
	vpxorq	zmm0, zmm2, zmm9
	vmovdqa64	zmmword ptr [rsp + 320], zmm2
	vmovdqa64	zmmword ptr [rsp + 384], zmm0
	vpxorq	zmm1, zmm13, zmm18
	#APP
	vgf2p8affineqb	zmm7, zmm7, zmmword ptr [rip + .LCPI0_28], 0
	#NO_APP
	vmovaps	zmmword ptr [rsp + 448], zmm7
	#APP
	vgf2p8affineqb	zmm27, zmm11, zmmword ptr [rip + .LCPI0_29], 0
	#NO_APP
	#APP
	vgf2p8affineqb	zmm7, zmm20, zmmword ptr [rip + .LCPI0_30], 0
	#NO_APP
	vmovaps	zmmword ptr [rsp + 1408], zmm7
	#APP
	vgf2p8affineqb	zmm30, zmm6, zmmword ptr [rip + .LCPI0_31], 0
	#NO_APP
	#APP
	vgf2p8affineqb	zmm5, zmm5, zmmword ptr [rip + .LCPI0_32], 0
	#NO_APP
	vmovaps	zmmword ptr [rsp + 1344], zmm5
	#APP
	vgf2p8affineqb	zmm7, zmm3, zmmword ptr [rip + .LCPI0_33], 0
	#NO_APP
	#APP
	vgf2p8affineqb	zmm2, zmm2, zmmword ptr [rip + .LCPI0_34], 0
	#NO_APP
	vmovaps	zmmword ptr [rsp + 1280], zmm2
	#APP
	vgf2p8affineqb	zmm6, zmm0, zmmword ptr [rip + .LCPI0_35], 0
	#NO_APP
	#APP
	vgf2p8affineqb	zmm2, zmm1, zmmword ptr [rip + .LCPI0_22], 0
	#NO_APP
	vpxorq	zmm1, zmm10, zmm21
	#APP
	vgf2p8affineqb	zmm1, zmm1, zmmword ptr [rip + .LCPI0_22], 0
	#NO_APP
	vpxorq	zmm31, zmm1, zmm21
	vpxorq	zmm11, zmm1, zmm10
	vpxorq	zmm5, zmm4, zmmword ptr [rsp + 640]
	vpxorq	zmm12, zmm19, zmm4
	#APP
	vgf2p8affineqb	zmm3, zmm31, zmmword ptr [rip + .LCPI0_23], 0
	#NO_APP
	#APP
	vgf2p8affineqb	zmm10, zmm11, zmmword ptr [rip + .LCPI0_24], 0
	#NO_APP
	#APP
	vgf2p8affineqb	zmm0, zmm12, zmmword ptr [rip + .LCPI0_22], 0
	#NO_APP
	vpxorq	zmm12, zmm8, zmm5
	#APP
	vgf2p8affineqb	zmm12, zmm12, zmmword ptr [rip + .LCPI0_22], 0
	#NO_APP
	vpxorq	zmm1, zmm12, zmm5
	vpxorq	zmm8, zmm12, zmm8
	#APP
	vgf2p8affineqb	zmm12, zmm1, zmmword ptr [rip + .LCPI0_23], 0
	#NO_APP
	vpternlogq	zmm12, zmm0, zmm4, 150
	#APP
	vgf2p8affineqb	zmm5, zmm8, zmmword ptr [rip + .LCPI0_24], 0
	#NO_APP
	vpternlogq	zmm5, zmm19, zmm0, 150
	vpternlogq	zmm10, zmm13, zmm2, 150
	vpternlogq	zmm3, zmm2, zmm18, 150
	vpxorq	zmm0, zmm18, zmmword ptr [rsp + 1216]
	vpternlogq	zmm17, zmm0, zmmword ptr [rsp + 1792], 150
	vmovdqa64	zmm2, zmmword ptr [rsp + 1472]
	vpxorq	zmm21, zmm2, zmmword ptr [rsp + 1536]
	vpxorq	zmm18, zmm12, zmm1
	vpxorq	zmm26, zmm5, zmm8
	vpxorq	zmm1, zmm21, zmm0
	#APP
	vgf2p8affineqb	zmm15, zmm12, zmmword ptr [rip + .LCPI0_25], 0
	#NO_APP
	#APP
	vgf2p8affineqb	zmm8, zmm18, zmmword ptr [rip + .LCPI0_26], 0
	#NO_APP
	#APP
	vgf2p8affineqb	zmm13, zmm5, zmmword ptr [rip + .LCPI0_22], 0
	#NO_APP
	#APP
	vgf2p8affineqb	zmm19, zmm26, zmmword ptr [rip + .LCPI0_27], 0
	#NO_APP
	#APP
	vgf2p8affineqb	zmm1, zmm1, zmmword ptr [rip + .LCPI0_22], 0
	#NO_APP
	vpxorq	zmm14, zmm25, zmm17
	#APP
	vgf2p8affineqb	zmm14, zmm14, zmmword ptr [rip + .LCPI0_22], 0
	#NO_APP
	vpxorq	zmm17, zmm14, zmm17
	vpxorq	zmm25, zmm14, zmm25
	#APP
	vgf2p8affineqb	zmm14, zmm17, zmmword ptr [rip + .LCPI0_23], 0
	#NO_APP
	#APP
	vgf2p8affineqb	zmm4, zmm25, zmmword ptr [rip + .LCPI0_24], 0
	#NO_APP
	vpternlogq	zmm4, zmm21, zmm1, 150
	vpternlogq	zmm14, zmm1, zmm0, 150
	vpxorq	zmm0, zmm0, zmmword ptr [rsp + 256]
	vmovdqa64	zmm1, zmmword ptr [rsp + 704]
	vpxorq	zmm2, zmm1, zmmword ptr [rsp + 768]
	vpxorq	zmm21, zmm0, zmmword ptr [rsp + 1088]
	vpxorq	zmm23, zmm2, zmm0
	#APP
	vgf2p8affineqb	zmm23, zmm23, zmmword ptr [rip + .LCPI0_22], 0
	#NO_APP
	vmovdqa64	zmm1, zmmword ptr [rsp + 896]
	vpxorq	zmm9, zmm1, zmm21
	#APP
	vgf2p8affineqb	zmm9, zmm9, zmmword ptr [rip + .LCPI0_22], 0
	#NO_APP
	vpxorq	zmm21, zmm9, zmm21
	vpxorq	zmm9, zmm9, zmm1
	#APP
	vgf2p8affineqb	zmm1, zmm21, zmmword ptr [rip + .LCPI0_23], 0
	#NO_APP
	vpternlogq	zmm1, zmm23, zmm0, 150
	#APP
	vgf2p8affineqb	zmm0, zmm9, zmmword ptr [rip + .LCPI0_24], 0
	#NO_APP
	vpternlogq	zmm0, zmm2, zmm23, 150
	vmovdqa64	zmm2, zmmword ptr [rsp + 832]
	vpternlogq	zmm22, zmm2, zmmword ptr [rsp + 1024], 150
	vpxorq	zmm2, zmm2, zmmword ptr [rsp + 1664]
	vpternlogq	zmm16, zmm24, zmmword ptr [rsp + 960], 150
	vpxorq	zmm24, zmm24, zmmword ptr [rsp + 1600]
	vpternlogq	zmm27, zmm2, zmm28, 150
	vpxorq	zmm23, zmm2, zmmword ptr [rsp + 448]
	vpternlogq	zmm30, zmm22, zmmword ptr [rsp + 512], 150
	vpxorq	zmm22, zmm22, zmmword ptr [rsp + 1408]
	vpternlogq	zmm7, zmm24, zmm29, 150
	vmovdqa64	zmmword ptr [rsp + 256], zmm7
	vpxorq	zmm24, zmm24, zmmword ptr [rsp + 1344]
	vpternlogq	zmm6, zmm16, zmmword ptr [rsp + 1728], 150
	vmovdqa64	zmmword ptr [rsp + 1216], zmm6
	vpxorq	zmm2, zmm16, zmmword ptr [rsp + 1280]
	vmovdqa64	zmmword ptr [rsp + 1152], zmm2
	vpternlogq	zmm8, zmm31, zmm3, 150
	vpxorq	zmm2, zmm15, zmm3
	vpternlogq	zmm19, zmm11, zmm10, 150
	vpxorq	zmm7, zmm13, zmm10
	vpxorq	zmm10, zmm1, zmm21
	#APP
	vgf2p8affineqb	zmm6, zmm1, zmmword ptr [rip + .LCPI0_25], 0
	#NO_APP
	#APP
	vgf2p8affineqb	zmm3, zmm10, zmmword ptr [rip + .LCPI0_26], 0
	#NO_APP
	vpternlogq	zmm3, zmm17, zmm14, 150
	vpxorq	zmm11, zmm6, zmm14
	vpxorq	zmm14, zmm0, zmm9
	#APP
	vgf2p8affineqb	zmm6, zmm0, zmmword ptr [rip + .LCPI0_22], 0
	#NO_APP
	#APP
	vgf2p8affineqb	zmm17, zmm14, zmmword ptr [rip + .LCPI0_27], 0
	#NO_APP
	vpternlogq	zmm17, zmm25, zmm4, 150
	vpxorq	zmm9, zmm6, zmm4
	vpxorq	zmm15, zmm11, zmm1
	#APP
	vgf2p8affineqb	zmm1, zmm11, zmmword ptr [rip + .LCPI0_28], 0
	#NO_APP
	#APP
	vgf2p8affineqb	zmm6, zmm15, zmmword ptr [rip + .LCPI0_29], 0
	#NO_APP
	vpternlogq	zmm6, zmm2, zmm12, 150
	vpxorq	zmm4, zmm1, zmm2
	vpxorq	zmm12, zmm3, zmm10
	#APP
	vgf2p8affineqb	zmm1, zmm3, zmmword ptr [rip + .LCPI0_30], 0
	#NO_APP
	#APP
	vgf2p8affineqb	zmm10, zmm12, zmmword ptr [rip + .LCPI0_31], 0
	#NO_APP
	vpternlogq	zmm10, zmm18, zmm8, 150
	vpxorq	zmm13, zmm1, zmm8
	vpxorq	zmm0, zmm9, zmm0
	#APP
	vgf2p8affineqb	zmm1, zmm9, zmmword ptr [rip + .LCPI0_32], 0
	#NO_APP
	#APP
	vgf2p8affineqb	zmm2, zmm0, zmmword ptr [rip + .LCPI0_33], 0
	#NO_APP
	vpternlogq	zmm2, zmm7, zmm5, 150
	vpxorq	zmm7, zmm1, zmm7
	vpxorq	zmm18, zmm17, zmm14
	#APP
	vgf2p8affineqb	zmm5, zmm17, zmmword ptr [rip + .LCPI0_34], 0
	#NO_APP
	#APP
	vgf2p8affineqb	zmm1, zmm18, zmmword ptr [rip + .LCPI0_35], 0
	#NO_APP
	vpternlogq	zmm1, zmm26, zmm19, 150
	vpxorq	zmm5, zmm5, zmm19
	vpxorq	zmm8, zmm4, zmm11
	#APP
	vgf2p8affineqb	zmm11, zmm4, zmmword ptr [rip + .LCPI0_36], 0
	#NO_APP
	#APP
	vgf2p8affineqb	zmm28, zmm8, zmmword ptr [rip + .LCPI0_37], 0
	#NO_APP
	vpternlogq	zmm28, zmm23, zmmword ptr [rsp + 576], 150
	vpxorq	zmm26, zmm11, zmm23
	vpxorq	zmm23, zmm6, zmm15
	#APP
	vgf2p8affineqb	zmm11, zmm6, zmmword ptr [rip + .LCPI0_38], 0
	#NO_APP
	#APP
	vgf2p8affineqb	zmm25, zmm23, zmmword ptr [rip + .LCPI0_25], 0
	#NO_APP
	vpternlogq	zmm25, zmm27, zmmword ptr [rsp], 150
	vpxorq	zmm31, zmm11, zmm27
	vpxorq	zmm21, zmm13, zmm3
	#APP
	vgf2p8affineqb	zmm11, zmm13, zmmword ptr [rip + .LCPI0_39], 0
	#NO_APP
	#APP
	vgf2p8affineqb	zmm3, zmm21, zmmword ptr [rip + .LCPI0_40], 0
	#NO_APP
	vpternlogq	zmm3, zmm22, zmm20, 150
	vpxorq	zmm29, zmm11, zmm22
	vpxorq	zmm19, zmm10, zmm12
	#APP
	vgf2p8affineqb	zmm11, zmm10, zmmword ptr [rip + .LCPI0_41], 0
	#NO_APP
	#APP
	vgf2p8affineqb	zmm22, zmm19, zmmword ptr [rip + .LCPI0_42], 0
	#NO_APP
	vpternlogq	zmm22, zmm30, zmmword ptr [rsp + 64], 150
	vpxorq	zmm27, zmm11, zmm30
	vpxorq	zmm16, zmm7, zmm9
	#APP
	vgf2p8affineqb	zmm12, zmm7, zmmword ptr [rip + .LCPI0_26], 0
	#NO_APP
	#APP
	vgf2p8affineqb	zmm20, zmm16, zmmword ptr [rip + .LCPI0_43], 0
	#NO_APP
	vmovdqa64	zmm30, zmm24
	vpternlogq	zmm20, zmm24, zmmword ptr [rsp + 128], 150
	vpxorq	zmm14, zmm2, zmm0
	vpxorq	zmm11, zmm5, zmm17
	vpxorq	zmm24, zmm1, zmm18
	vpxorq	zmm18, zmm26, zmm4
	#APP
	vgf2p8affineqb	zmm4, zmm2, zmmword ptr [rip + .LCPI0_44], 0
	#NO_APP
	#APP
	vgf2p8affineqb	zmm17, zmm14, zmmword ptr [rip + .LCPI0_45], 0
	#NO_APP
	#APP
	vgf2p8affineqb	zmm9, zmm5, zmmword ptr [rip + .LCPI0_46], 0
	#NO_APP
	#APP
	vgf2p8affineqb	zmm15, zmm11, zmmword ptr [rip + .LCPI0_47], 0
	#NO_APP
	#APP
	vgf2p8affineqb	zmm0, zmm1, zmmword ptr [rip + .LCPI0_48], 0
	#NO_APP
	vmovaps	zmmword ptr [rsp + 128], zmm0
	#APP
	vgf2p8affineqb	zmm0, zmm24, zmmword ptr [rip + .LCPI0_49], 0
	#NO_APP
	mov	r8, qword ptr [rdx]
	vmovdqu64	zmmword ptr [r8 + rcx], zmm26
	mov	r8, qword ptr [rdx + 8]
	vmovdqu64	zmmword ptr [r8 + rcx], zmm18
	vpxorq	zmm12, zmm12, zmm30
	vpxorq	zmm8, zmm28, zmm8
	mov	r8, qword ptr [rdx + 16]
	vmovdqu64	zmmword ptr [r8 + rcx], zmm28
	mov	r8, qword ptr [rdx + 24]
	vmovdqu64	zmmword ptr [r8 + rcx], zmm8
	vpxorq	zmm6, zmm31, zmm6
	mov	r8, qword ptr [rdx + 32]
	vmovdqu64	zmmword ptr [r8 + rcx], zmm31
	vmovdqa64	zmm8, zmmword ptr [rsp + 256]
	vpternlogq	zmm17, zmm8, zmmword ptr [rsp + 192], 150
	mov	r8, qword ptr [rdx + 40]
	vmovdqu64	zmmword ptr [r8 + rcx], zmm6
	vpxorq	zmm6, zmm25, zmm23
	mov	r8, qword ptr [rdx + 48]
	vmovdqu64	zmmword ptr [r8 + rcx], zmm25
	mov	r8, qword ptr [rdx + 56]
	vmovdqu64	zmmword ptr [r8 + rcx], zmm6
	vpxorq	zmm6, zmm29, zmm13
	mov	r8, qword ptr [rdx + 64]
	vmovdqu64	zmmword ptr [r8 + rcx], zmm29
	mov	r8, qword ptr [rdx + 72]
	vmovdqu64	zmmword ptr [r8 + rcx], zmm6
	vpxorq	zmm4, zmm4, zmm8
	vpxorq	zmm6, zmm3, zmm21
	mov	r8, qword ptr [rdx + 80]
	vmovdqu64	zmmword ptr [r8 + rcx], zmm3
	mov	r8, qword ptr [rdx + 88]
	vmovdqu64	zmmword ptr [r8 + rcx], zmm6
	vpxorq	zmm3, zmm27, zmm10
	mov	r8, qword ptr [rdx + 96]
	vmovdqu64	zmmword ptr [r8 + rcx], zmm27
	vmovdqa64	zmm6, zmmword ptr [rsp + 1152]
	vpternlogq	zmm15, zmm6, zmmword ptr [rsp + 320], 150
	mov	r8, qword ptr [rdx + 104]
	vmovdqu64	zmmword ptr [r8 + rcx], zmm3
	vpxorq	zmm3, zmm22, zmm19
	mov	r8, qword ptr [rdx + 112]
	vmovdqu64	zmmword ptr [r8 + rcx], zmm22
	mov	r8, qword ptr [rdx + 120]
	vmovdqu64	zmmword ptr [r8 + rcx], zmm3
	vpxorq	zmm3, zmm12, zmm7
	mov	r8, qword ptr [rdx + 128]
	vmovdqu64	zmmword ptr [r8 + rcx], zmm12
	mov	r8, qword ptr [rdx + 136]
	vmovdqu64	zmmword ptr [r8 + rcx], zmm3
	vpxorq	zmm3, zmm9, zmm6
	vpxorq	zmm6, zmm20, zmm16
	mov	r8, qword ptr [rdx + 144]
	vmovdqu64	zmmword ptr [r8 + rcx], zmm20
	mov	r8, qword ptr [rdx + 152]
	vmovdqu64	zmmword ptr [r8 + rcx], zmm6
	vpxorq	zmm2, zmm4, zmm2
	mov	r8, qword ptr [rdx + 160]
	vmovdqu64	zmmword ptr [r8 + rcx], zmm4
	vmovdqa64	zmm4, zmmword ptr [rsp + 1216]
	vpternlogq	zmm0, zmm4, zmmword ptr [rsp + 384], 150
	mov	r8, qword ptr [rdx + 168]
	vmovdqu64	zmmword ptr [r8 + rcx], zmm2
	vpxorq	zmm2, zmm17, zmm14
	mov	r8, qword ptr [rdx + 176]
	vmovdqu64	zmmword ptr [r8 + rcx], zmm17
	mov	r8, qword ptr [rdx + 184]
	vmovdqu64	zmmword ptr [r8 + rcx], zmm2
	vpxorq	zmm2, zmm3, zmm5
	mov	r8, qword ptr [rdx + 192]
	vmovdqu64	zmmword ptr [r8 + rcx], zmm3
	mov	r8, qword ptr [rdx + 200]
	vmovdqu64	zmmword ptr [r8 + rcx], zmm2
	vpxorq	zmm2, zmm4, zmmword ptr [rsp + 128]
	vpxorq	zmm3, zmm15, zmm11
	mov	r8, qword ptr [rdx + 208]
	vmovdqu64	zmmword ptr [r8 + rcx], zmm15
	mov	r8, qword ptr [rdx + 216]
	vmovdqu64	zmmword ptr [r8 + rcx], zmm3
	vpxorq	zmm1, zmm2, zmm1
	mov	r8, qword ptr [rdx + 224]
	vmovdqu64	zmmword ptr [r8 + rcx], zmm2
	mov	r8, qword ptr [rdx + 232]
	vmovdqu64	zmmword ptr [r8 + rcx], zmm1
	mov	r8, qword ptr [rdx + 240]
	vmovdqu64	zmmword ptr [r8 + rcx], zmm0
	vpxorq	zmm0, zmm0, zmm24
	mov	r8, qword ptr [rdx + 248]
	vmovdqu64	zmmword ptr [r8 + rcx], zmm0
	add	rcx, 64
	cmp	rcx, rdi
	jae	.LBB0_4
	cmp	rcx, rax
	cmovae	rcx, rax
	jmp	.LBB0_2
.LBB0_4:
	mov	rsp, rbp
	pop	rbp
	.cfi_def_cfa rsp, 8
	.cfi_restore rbp
.LBB0_5:
	vzeroupper
	ret
.Lfunc_end0:
	.size	fd_reedsol_private_encode_32_32, .Lfunc_end0-fd_reedsol_private_encode_32_32
	.cfi_endproc

	.section	".note.GNU-stack","",@progbits
